target datalayout = "e-m:e-p270:32:32-p271:32:32-p272:64:64-i64:64-i128:128-f80:128-n8:16:32:64-S128"
target triple = "x86_64-pc-linux-gnu"

%struct.job_record = type { i32, ptr, ptr, ptr, ptr, i16, i32, i32, i32, ptr, i32, ptr, ptr, i16, ptr, double, i64, ptr, ptr, ptr, ptr, ptr, ptr, i32, ptr, i32, i64, i64, i32, i32, ptr, i16, i64, i64, i8, i32, ptr, ptr, ptr, ptr, ptr, ptr, ptr, ptr, i32, ptr, ptr, i32, ptr, i32, ptr, i32, ptr, i32, ptr, ptr, ptr, ptr, ptr, ptr, i32, i16, i64, ptr, ptr, ptr, ptr, %struct.acct_policy_limit_set_t, i16, ptr, ptr, ptr, ptr, ptr, i32, ptr, ptr, ptr, ptr, ptr, i32, i32, ptr, ptr, ptr, i16, ptr, ptr, i8, ptr, ptr, i64, i64, i8, i32, i32, i8, i32, ptr, i32, i64, i32, ptr, ptr, ptr, i8, i16, i64, i32, ptr, ptr, ptr, ptr, ptr, i16, i32, ptr, ptr, ptr, ptr, i32, ptr, i32, i16, i64, ptr, i32, i32, ptr, i64, ptr, ptr, i64, i32, i32, i64, i32, i32, ptr, ptr, ptr, ptr, ptr, ptr, ptr, ptr, ptr, ptr, ptr, ptr, i32, ptr, i16, i16, i16, i16, ptr, i32, i32, i8, i64 }
%struct.acct_policy_limit_set_t = type { i16, i16, ptr }

@port_resv_cnt = dso_local global i32 0, align 4
@.str.11 = private unnamed_addr constant [153 x i8] c"%pJ allocated reserved ports while it already had reserved ports %s. Ports may be lost, which will require a restart of the slurmctld daemon to resolve.\00", align 1
@.str.12 = private unnamed_addr constant [47 x i8] c"%pJ needs %u reserved ports, but only %d exist\00", align 1
@.str.13 = private unnamed_addr constant [49 x i8] c"insufficient ports for %pJ to reserve (%d of %u)\00", align 1
@.str.14 = private unnamed_addr constant [26 x i8] c"reserved ports %s for %pJ\00", align 1

; Function Attrs: nounwind uwtable
define dso_local i32 @resv_port_job_alloc(ptr noundef %0) #0 {
  %2 = alloca ptr, align 8
  %3 = alloca i32, align 4
  %4 = alloca i32, align 4
  store ptr %0, ptr %2, align 8
  call void @llvm.lifetime.start.p0(i64 4, ptr %3) #6
  call void @llvm.lifetime.start.p0(i64 4, ptr %4) #6
  %5 = load ptr, ptr %2, align 8
  %6 = getelementptr inbounds nuw %struct.job_record, ptr %5, i32 0, i32 113
  %7 = load ptr, ptr %6, align 8
  %8 = icmp ne ptr %7, null
  br i1 %8, label %14, label %9

9:                                                ; preds = %1
  %10 = load ptr, ptr %2, align 8
  %11 = getelementptr inbounds nuw %struct.job_record, ptr %10, i32 0, i32 112
  %12 = load ptr, ptr %11, align 8
  %13 = icmp ne ptr %12, null
  br i1 %13, label %14, label %24

14:                                               ; preds = %9, %1
  %15 = load ptr, ptr %2, align 8
  %16 = load ptr, ptr %2, align 8
  %17 = getelementptr inbounds nuw %struct.job_record, ptr %16, i32 0, i32 112
  %18 = load ptr, ptr %17, align 8
  %19 = call i32 (ptr, ...) @error(ptr noundef @.str.11, ptr noundef %15, ptr noundef %18)
  %20 = load ptr, ptr %2, align 8
  %21 = getelementptr inbounds nuw %struct.job_record, ptr %20, i32 0, i32 113
  call void @slurm_xfree(ptr noundef %21)
  %22 = load ptr, ptr %2, align 8
  %23 = getelementptr inbounds nuw %struct.job_record, ptr %22, i32 0, i32 112
  call void @slurm_xfree(ptr noundef %23)
  br label %24

24:                                               ; preds = %14, %9
  %25 = load ptr, ptr %2, align 8
  %26 = getelementptr inbounds nuw %struct.job_record, ptr %25, i32 0, i32 114
  %27 = load i16, ptr %26, align 8
  %28 = load ptr, ptr %2, align 8
  %29 = getelementptr inbounds nuw %struct.job_record, ptr %28, i32 0, i32 77
  %30 = load ptr, ptr %29, align 8
  %31 = load ptr, ptr %2, align 8
  %32 = getelementptr inbounds nuw %struct.job_record, ptr %31, i32 0, i32 112
  %33 = load ptr, ptr %2, align 8
  %34 = getelementptr inbounds nuw %struct.job_record, ptr %33, i32 0, i32 113
  %35 = call i32 @_resv_port_alloc(i16 noundef zeroext %27, ptr noundef %30, ptr noundef %32, ptr noundef %34, ptr noundef %4)
  store i32 %35, ptr %3, align 4
  %36 = load i32, ptr %3, align 4
  %37 = icmp eq i32 %36, 2060
  br i1 %37, label %38, label %55

38:                                               ; preds = %24
  br label %39

39:                                               ; preds = %38
  br label %40

40:                                               ; preds = %39
  %41 = call i32 @get_log_level()
  %42 = icmp sge i32 %41, 3
  br i1 %42, label %43, label %50

43:                                               ; preds = %40
  %44 = load ptr, ptr %2, align 8
  %45 = load ptr, ptr %2, align 8
  %46 = getelementptr inbounds nuw %struct.job_record, ptr %45, i32 0, i32 114
  %47 = load i16, ptr %46, align 8
  %48 = zext i16 %47 to i32
  %49 = load i32, ptr @port_resv_cnt, align 4
  call void (i32, ptr, ...) @log_var(i32 noundef 3, ptr noundef @.str.12, ptr noundef %44, i32 noundef %48, i32 noundef %49)
  br label %50

50:                                               ; preds = %43, %40
  br label %51

51:                                               ; preds = %50
  br label %52

52:                                               ; preds = %51
  br label %53

53:                                               ; preds = %52
  br label %54

54:                                               ; preds = %53
  br label %76

55:                                               ; preds = %24
  %56 = load i32, ptr %3, align 4
  %57 = icmp eq i32 %56, 2059
  br i1 %57, label %58, label %75

58:                                               ; preds = %55
  br label %59

59:                                               ; preds = %58
  br label %60

60:                                               ; preds = %59
  %61 = call i32 @get_log_level()
  %62 = icmp sge i32 %61, 3
  br i1 %62, label %63, label %70

63:                                               ; preds = %60
  %64 = load ptr, ptr %2, align 8
  %65 = load i32, ptr %4, align 4
  %66 = load ptr, ptr %2, align 8
  %67 = getelementptr inbounds nuw %struct.job_record, ptr %66, i32 0, i32 114
  %68 = load i16, ptr %67, align 8
  %69 = zext i16 %68 to i32
  call void (i32, ptr, ...) @log_var(i32 noundef 3, ptr noundef @.str.13, ptr noundef %64, i32 noundef %65, i32 noundef %69)
  br label %70

70:                                               ; preds = %63, %60
  br label %71

71:                                               ; preds = %70
  br label %72

72:                                               ; preds = %71
  br label %73

73:                                               ; preds = %72
  br label %74

74:                                               ; preds = %73
  br label %75

75:                                               ; preds = %74, %55
  br label %76

76:                                               ; preds = %75, %54
  br label %77

77:                                               ; preds = %76
  br label %78

78:                                               ; preds = %77
  %79 = call i32 @get_log_level()
  %80 = icmp sge i32 %79, 5
  br i1 %80, label %81, label %86

81:                                               ; preds = %78
  %82 = load ptr, ptr %2, align 8
  %83 = getelementptr inbounds nuw %struct.job_record, ptr %82, i32 0, i32 112
  %84 = load ptr, ptr %83, align 8
  %85 = load ptr, ptr %2, align 8
  call void (i32, ptr, ...) @log_var(i32 noundef 5, ptr noundef @.str.14, ptr noundef %84, ptr noundef %85)
  br label %86

86:                                               ; preds = %81, %78
  br label %87

87:                                               ; preds = %86
  br label %88

88:                                               ; preds = %87
  br label %89

89:                                               ; preds = %88
  br label %90

90:                                               ; preds = %89
  %91 = load i32, ptr %3, align 4
  call void @llvm.lifetime.end.p0(i64 4, ptr %4) #6
  call void @llvm.lifetime.end.p0(i64 4, ptr %3) #6
  ret i32 %91
}