; Function Attrs: nounwind uwtable
define dso_local noundef range(i32 0, 2061) i32 @resv_port_job_alloc(ptr noundef %0) local_unnamed_addr #0 {
  %2 = alloca i32, align 4
  call void @llvm.lifetime.start.p0(i64 4, ptr nonnull %2) #8
  %3 = getelementptr inbounds nuw i8, ptr %0, i64 840
  %4 = load ptr, ptr %3, align 8
  %.not = icmp eq ptr %4, null
  %5 = getelementptr inbounds nuw i8, ptr %0, i64 832
  %6 = load ptr, ptr %5, align 8
  %.not18 = icmp eq ptr %6, null
  %or.cond = select i1 %.not, i1 %.not18, i1 false
  br i1 %or.cond, label %9, label %._crit_edge

._crit_edge:                                      ; preds = %1
  %7 = getelementptr inbounds nuw i8, ptr %0, i64 832
  %8 = tail call i32 (ptr, ...) @error(ptr noundef nonnull @.str.11, ptr noundef nonnull %0, ptr noundef %6) #8
  tail call void @slurm_xfree(ptr noundef nonnull %3) #8
  tail call void @slurm_xfree(ptr noundef nonnull %7) #8
  br label %9

9:                                                ; preds = %1, %._crit_edge
  %10 = getelementptr inbounds nuw i8, ptr %0, i64 848
  %11 = load i16, ptr %10, align 8
  %12 = getelementptr inbounds nuw i8, ptr %0, i64 584
  %13 = load ptr, ptr %12, align 8
  %14 = getelementptr inbounds nuw i8, ptr %0, i64 832
  %15 = call fastcc i32 @_resv_port_alloc(i16 noundef zeroext %11, ptr noundef %13, ptr noundef nonnull %14, ptr noundef nonnull %3, ptr noundef %2)
  switch i32 %15, label %30 [
    i32 2060, label %16
    i32 2059, label %23
  ]

16:                                               ; preds = %9
  %17 = tail call i32 @get_log_level() #8
  %18 = icmp sgt i32 %17, 2
  br i1 %18, label %19, label %30

19:                                               ; preds = %16
  %20 = load i16, ptr %10, align 8
  %21 = zext i16 %20 to i32
  %22 = load i32, ptr @port_resv_cnt, align 4
  tail call void (i32, ptr, ...) @log_var(i32 noundef 3, ptr noundef nonnull @.str.12, ptr noundef nonnull %0, i32 noundef %21, i32 noundef %22) #8
  br label %30

23:                                               ; preds = %9
  %24 = tail call i32 @get_log_level() #8
  %25 = icmp sgt i32 %24, 2
  br i1 %25, label %26, label %30

26:                                               ; preds = %23
  %27 = load i32, ptr %2, align 4
  %28 = load i16, ptr %10, align 8
  %29 = zext i16 %28 to i32
  tail call void (i32, ptr, ...) @log_var(i32 noundef 3, ptr noundef nonnull @.str.13, ptr noundef nonnull %0, i32 noundef %27, i32 noundef %29) #8
  br label %30

30:                                               ; preds = %9, %26, %23, %16, %19
  %31 = tail call i32 @get_log_level() #8
  %32 = icmp sgt i32 %31, 4
  br i1 %32, label %33, label %35

33:                                               ; preds = %30
  %34 = load ptr, ptr %14, align 8
  tail call void (i32, ptr, ...) @log_var(i32 noundef 5, ptr noundef nonnull @.str.14, ptr noundef %34, ptr noundef nonnull %0) #8
  br label %35

35:                                               ; preds = %33, %30
  call void @llvm.lifetime.end.p0(i64 4, ptr nonnull %2) #8
  ret i32 %15
}